(dp0
S'P1854__1__12012___1848.png'
p1
(lp2
(dp3
S'name'
p4
S'bridge'
p5
sS'bbox'
p6
cnumpy.core.multiarray
_reconstruct
p7
(cnumpy
ndarray
p8
(I0
tp9
S'b'
p10
tp11
Rp12
(I1
(I0
I5
tp13
cnumpy
dtype
p14
(S'f8'
p15
I0
I1
tp16
Rp17
(I3
S'<'
p18
NNNI-1
I-1
I0
tp19
bI00
S''
p20
tp21
bsa(dp22
g4
S'baseball-diamond'
p23
sg6
g7
(g8
(I0
tp24
g10
tp25
Rp26
(I1
(I0
I5
tp27
g17
I00
g20
tp28
bsa(dp29
g4
S'basketball-court'
p30
sg6
g7
(g8
(I0
tp31
g10
tp32
Rp33
(I1
(I0
I5
tp34
g17
I00
g20
tp35
bsa(dp36
g4
S'harbor'
p37
sg6
g7
(g8
(I0
tp38
g10
tp39
Rp40
(I1
(I0
I5
tp41
g17
I00
g20
tp42
bsa(dp43
g4
S'soccer-ball-field'
p44
sg6
g7
(g8
(I0
tp45
g10
tp46
Rp47
(I1
(I0
I5
tp48
g17
I00
g20
tp49
bsa(dp50
g4
S'ground-track-field'
p51
sg6
g7
(g8
(I0
tp52
g10
tp53
Rp54
(I1
(I0
I5
tp55
g17
I00
g20
tp56
bsa(dp57
g4
S'small-vehicle'
p58
sg6
g7
(g8
(I0
tp59
g10
tp60
Rp61
(I1
(I0
I5
tp62
g17
I00
g20
tp63
bsa(dp64
g4
S'storage-tank'
p65
sg6
g7
(g8
(I0
tp66
g10
tp67
Rp68
(I1
(I0
I5
tp69
g17
I00
g20
tp70
bsa(dp71
g4
S'large-vehicle'
p72
sg6
g7
(g8
(I0
tp73
g10
tp74
Rp75
(I1
(I0
I5
tp76
g17
I00
g20
tp77
bsa(dp78
g4
S'plane'
p79
sg6
g7
(g8
(I0
tp80
g10
tp81
Rp82
(I1
(I0
I5
tp83
g17
I00
g20
tp84
bsa(dp85
g4
S'roundabout'
p86
sg6
g7
(g8
(I0
tp87
g10
tp88
Rp89
(I1
(I0
I5
tp90
g17
I00
g20
tp91
bsa(dp92
g4
S'tennis-court'
p93
sg6
g7
(g8
(I0
tp94
g10
tp95
Rp96
(I1
(I0
I5
tp97
g17
I00
g20
tp98
bsa(dp99
g4
S'helicopter'
p100
sg6
g7
(g8
(I0
tp101
g10
tp102
Rp103
(I1
(I0
I5
tp104
g17
I00
g20
tp105
bsa(dp106
g4
S'ship'
p107
sg6
g7
(g8
(I0
tp108
g10
tp109
Rp110
(I1
(I0
I5
tp111
g17
I00
g20
tp112
bsa(dp113
g4
S'swimming-pool'
p114
sg6
g7
(g8
(I0
tp115
g10
tp116
Rp117
(I1
(I0
I5
tp118
g17
I00
g20
tp119
bsas.